target datalayout = "e-m:e-p270:32:32-p271:32:32-p272:64:64-i64:64-i128:128-f80:128-n8:16:32:64-S128"
target triple = "x86_64-pc-linux-gnu"

@.str.24 = private unnamed_addr constant [28 x i8] c"../openssl/test/test_test.c\00", align 1
@stderr = external global ptr, align 8
@.str.47 = private unnamed_addr constant [19 x i8] c"# FATAL: %s != %d\0A\00", align 1
@.str.116 = private unnamed_addr constant [25 x i8] c"TEST_long_eq(123l, 123l)\00", align 1
@.str.117 = private unnamed_addr constant [5 x i8] c"123l\00", align 1
@.str.118 = private unnamed_addr constant [26 x i8] c"TEST_long_eq(123l, -123l)\00", align 1
@.str.119 = private unnamed_addr constant [6 x i8] c"-123l\00", align 1
@.str.120 = private unnamed_addr constant [25 x i8] c"TEST_long_ne(123l, 500l)\00", align 1
@.str.121 = private unnamed_addr constant [5 x i8] c"500l\00", align 1
@.str.122 = private unnamed_addr constant [27 x i8] c"TEST_long_ne(1000l, 1000l)\00", align 1
@.str.123 = private unnamed_addr constant [6 x i8] c"1000l\00", align 1
@.str.124 = private unnamed_addr constant [33 x i8] c"TEST_long_lt(-8923l, 102934563l)\00", align 1
@.str.125 = private unnamed_addr constant [7 x i8] c"-8923l\00", align 1
@.str.126 = private unnamed_addr constant [11 x i8] c"102934563l\00", align 1
@.str.127 = private unnamed_addr constant [33 x i8] c"TEST_long_lt(102934563l, -8923l)\00", align 1
@.str.128 = private unnamed_addr constant [33 x i8] c"TEST_long_le(-8923l, 102934563l)\00", align 1
@.str.129 = private unnamed_addr constant [29 x i8] c"TEST_long_le(12345l, 12345l)\00", align 1
@.str.130 = private unnamed_addr constant [7 x i8] c"12345l\00", align 1
@.str.131 = private unnamed_addr constant [33 x i8] c"TEST_long_le(102934563l, -8923l)\00", align 1
@.str.132 = private unnamed_addr constant [32 x i8] c"TEST_long_gt(84325677l, 12345l)\00", align 1
@.str.133 = private unnamed_addr constant [10 x i8] c"84325677l\00", align 1
@.str.134 = private unnamed_addr constant [32 x i8] c"TEST_long_gt(12345l, 84325677l)\00", align 1
@.str.135 = private unnamed_addr constant [32 x i8] c"TEST_long_ge(84325677l, 12345l)\00", align 1
@.str.136 = private unnamed_addr constant [31 x i8] c"TEST_long_ge(465869l, 465869l)\00", align 1
@.str.137 = private unnamed_addr constant [8 x i8] c"465869l\00", align 1
@.str.138 = private unnamed_addr constant [32 x i8] c"TEST_long_ge(12345l, 84325677l)\00", align 1

; Function Attrs: nounwind uwtable
define internal i32 @test_case(i32 noundef %0, ptr noundef %1, i32 noundef %2) #0 {
  %4 = alloca i32, align 4
  %5 = alloca i32, align 4
  %6 = alloca ptr, align 8
  %7 = alloca i32, align 4
  store i32 %0, ptr %5, align 4, !tbaa !4
  store ptr %1, ptr %6, align 8, !tbaa !9
  store i32 %2, ptr %7, align 4, !tbaa !4
  %8 = load i32, ptr %7, align 4, !tbaa !4
  %9 = load i32, ptr %5, align 4, !tbaa !4
  %10 = icmp ne i32 %8, %9
  br i1 %10, label %11, label %16

11:                                               ; preds = %3
  %12 = load ptr, ptr @stderr, align 8, !tbaa !16
  %13 = load ptr, ptr %6, align 8, !tbaa !9
  %14 = load i32, ptr %5, align 4, !tbaa !4
  %15 = call i32 (ptr, ptr, ...) @fprintf(ptr noundef %12, ptr noundef @.str.47, ptr noundef %13, i32 noundef %14) #7
  store i32 0, ptr %4, align 4
  br label %17

16:                                               ; preds = %3
  store i32 1, ptr %4, align 4
  br label %17

17:                                               ; preds = %16, %11
  %18 = load i32, ptr %4, align 4
  ret i32 %18
}

; Function Attrs: nounwind uwtable
define internal i32 @test_long() #0 {
  %1 = alloca i32, align 4
  %2 = call i32 @test_long_eq(ptr noundef @.str.24, i32 noundef 127, ptr noundef @.str.117, ptr noundef @.str.117, i64 noundef 123, i64 noundef 123)
  %3 = call i32 @test_case(i32 noundef 1, ptr noundef @.str.116, i32 noundef %2)
  %4 = icmp ne i32 %3, 0
  br i1 %4, label %5, label %57

5:                                                ; preds = %0
  %6 = call i32 @test_long_eq(ptr noundef @.str.24, i32 noundef 128, ptr noundef @.str.117, ptr noundef @.str.119, i64 noundef 123, i64 noundef -123)
  %7 = call i32 @test_case(i32 noundef 0, ptr noundef @.str.118, i32 noundef %6)
  %8 = icmp ne i32 %7, 0
  br i1 %8, label %9, label %57

9:                                                ; preds = %5
  %10 = call i32 @test_long_ne(ptr noundef @.str.24, i32 noundef 129, ptr noundef @.str.117, ptr noundef @.str.121, i64 noundef 123, i64 noundef 500)
  %11 = call i32 @test_case(i32 noundef 1, ptr noundef @.str.120, i32 noundef %10)
  %12 = icmp ne i32 %11, 0
  br i1 %12, label %13, label %57

13:                                               ; preds = %9
  %14 = call i32 @test_long_ne(ptr noundef @.str.24, i32 noundef 130, ptr noundef @.str.123, ptr noundef @.str.123, i64 noundef 1000, i64 noundef 1000)
  %15 = call i32 @test_case(i32 noundef 0, ptr noundef @.str.122, i32 noundef %14)
  %16 = icmp ne i32 %15, 0
  br i1 %16, label %17, label %57

17:                                               ; preds = %13
  %18 = call i32 @test_long_lt(ptr noundef @.str.24, i32 noundef 131, ptr noundef @.str.125, ptr noundef @.str.126, i64 noundef -8923, i64 noundef 102934563)
  %19 = call i32 @test_case(i32 noundef 1, ptr noundef @.str.124, i32 noundef %18)
  %20 = icmp ne i32 %19, 0
  br i1 %20, label %21, label %57

21:                                               ; preds = %17
  %22 = call i32 @test_long_lt(ptr noundef @.str.24, i32 noundef 132, ptr noundef @.str.126, ptr noundef @.str.125, i64 noundef 102934563, i64 noundef -8923)
  %23 = call i32 @test_case(i32 noundef 0, ptr noundef @.str.127, i32 noundef %22)
  %24 = icmp ne i32 %23, 0
  br i1 %24, label %25, label %57

25:                                               ; preds = %21
  %26 = call i32 @test_long_le(ptr noundef @.str.24, i32 noundef 133, ptr noundef @.str.125, ptr noundef @.str.126, i64 noundef -8923, i64 noundef 102934563)
  %27 = call i32 @test_case(i32 noundef 1, ptr noundef @.str.128, i32 noundef %26)
  %28 = icmp ne i32 %27, 0
  br i1 %28, label %29, label %57

29:                                               ; preds = %25
  %30 = call i32 @test_long_le(ptr noundef @.str.24, i32 noundef 134, ptr noundef @.str.130, ptr noundef @.str.130, i64 noundef 12345, i64 noundef 12345)
  %31 = call i32 @test_case(i32 noundef 1, ptr noundef @.str.129, i32 noundef %30)
  %32 = icmp ne i32 %31, 0
  br i1 %32, label %33, label %57

33:                                               ; preds = %29
  %34 = call i32 @test_long_le(ptr noundef @.str.24, i32 noundef 135, ptr noundef @.str.126, ptr noundef @.str.125, i64 noundef 102934563, i64 noundef -8923)
  %35 = call i32 @test_case(i32 noundef 0, ptr noundef @.str.131, i32 noundef %34)
  %36 = icmp ne i32 %35, 0
  br i1 %36, label %37, label %57

37:                                               ; preds = %33
  %38 = call i32 @test_long_gt(ptr noundef @.str.24, i32 noundef 136, ptr noundef @.str.133, ptr noundef @.str.130, i64 noundef 84325677, i64 noundef 12345)
  %39 = call i32 @test_case(i32 noundef 1, ptr noundef @.str.132, i32 noundef %38)
  %40 = icmp ne i32 %39, 0
  br i1 %40, label %41, label %57

41:                                               ; preds = %37
  %42 = call i32 @test_long_gt(ptr noundef @.str.24, i32 noundef 137, ptr noundef @.str.130, ptr noundef @.str.133, i64 noundef 12345, i64 noundef 84325677)
  %43 = call i32 @test_case(i32 noundef 0, ptr noundef @.str.134, i32 noundef %42)
  %44 = icmp ne i32 %43, 0
  br i1 %44, label %45, label %57

45:                                               ; preds = %41
  %46 = call i32 @test_long_ge(ptr noundef @.str.24, i32 noundef 138, ptr noundef @.str.133, ptr noundef @.str.130, i64 noundef 84325677, i64 noundef 12345)
  %47 = call i32 @test_case(i32 noundef 1, ptr noundef @.str.135, i32 noundef %46)
  %48 = icmp ne i32 %47, 0
  br i1 %48, label %49, label %57

49:                                               ; preds = %45
  %50 = call i32 @test_long_ge(ptr noundef @.str.24, i32 noundef 139, ptr noundef @.str.137, ptr noundef @.str.137, i64 noundef 465869, i64 noundef 465869)
  %51 = call i32 @test_case(i32 noundef 1, ptr noundef @.str.136, i32 noundef %50)
  %52 = icmp ne i32 %51, 0
  br i1 %52, label %53, label %57

53:                                               ; preds = %49
  %54 = call i32 @test_long_ge(ptr noundef @.str.24, i32 noundef 140, ptr noundef @.str.130, ptr noundef @.str.133, i64 noundef 12345, i64 noundef 84325677)
  %55 = call i32 @test_case(i32 noundef 0, ptr noundef @.str.138, i32 noundef %54)
  %56 = icmp ne i32 %55, 0
  br i1 %56, label %58, label %57

57:                                               ; preds = %53, %49, %45, %41, %37, %33, %29, %25, %21, %17, %13, %9, %5, %0
  br label %59

58:                                               ; preds = %53
  store i32 1, ptr %1, align 4
  br label %60

59:                                               ; preds = %57
  store i32 0, ptr %1, align 4
  br label %60

60:                                               ; preds = %59, %58
  %61 = load i32, ptr %1, align 4
  ret i32 %61
}